(dp0
S'start'
p1
ccopy_reg
_reconstructor
p2
(cgeometry_msgs.msg._Pose2D
Pose2D
p3
c__builtin__
object
p4
Ntp5
Rp6
(lp7
F2047.937744140625
aF2137.333251953125
aF-1.5207382440567017
absS'obstacles'
p8
(dp9
S'/b_r1'
p10
g2
(g3
g4
Ntp11
Rp12
(lp13
F1275.107666015625
aF743.3353881835938
aF0.4582335948944092
absS'/b_r8'
p14
g2
(g3
g4
Ntp15
Rp16
(lp17
F316.031982421875
aF1973.552001953125
aF0.027711449190974236
absS'/b_r3'
p18
g2
(g3
g4
Ntp19
Rp20
(lp21
F899.176513671875
aF1471.3505859375
aF-0.008200972341001034
absS'/b_r2'
p22
g2
(g3
g4
Ntp23
Rp24
(lp25
F2532.0
aF-32.87997055053711
aF3.088158369064331
absS'/b_r5'
p26
g2
(g3
g4
Ntp27
Rp28
(lp29
F1571.18359375
aF-1008.8904418945312
aF-0.11402926594018936
abssS'end'
p30
g2
(g3
g4
Ntp31
Rp32
(lp33
F2421.125
aF-1533.5230712890625
aF0.0
abs.