(dp0
S'start'
p1
ccopy_reg
_reconstructor
p2
(cgeometry_msgs.msg._Pose2D
Pose2D
p3
c__builtin__
object
p4
Ntp5
Rp6
(lp7
F621.2813110351562
aF2015.54443359375
aF0.05064254626631737
absS'obstacles'
p8
(dp9
S'/b_r1'
p10
g2
(g3
g4
Ntp11
Rp12
(lp13
F1276.8037109375
aF743.5527954101562
aF0.515539824962616
absS'/b_r0'
p14
g2
(g3
g4
Ntp15
Rp16
(lp17
F2179.320068359375
aF1206.0999755859375
aF1.6368159055709839
absS'/b_r3'
p18
g2
(g3
g4
Ntp19
Rp20
(lp21
F897.765625
aF1471.0146484375
aF-0.01018598210066557
absS'/b_r2'
p22
g2
(g3
g4
Ntp23
Rp24
(lp25
F2528.38671875
aF-30.333311080932617
aF3.0793967247009277
absS'/b_r5'
p26
g2
(g3
g4
Ntp27
Rp28
(lp29
F1572.3807373046875
aF-1008.0
aF-0.08650830388069153
abssS'end'
p30
g2
(g3
g4
Ntp31
Rp32
(lp33
F3009.44091796875
aF-1496.927978515625
aF0.0
abs.