(dp0
S'start'
p1
ccopy_reg
_reconstructor
p2
(cgeometry_msgs.msg._Pose2D
Pose2D
p3
c__builtin__
object
p4
Ntp5
Rp6
(lp7
F620.2709350585938
aF2016.9754638671875
aF0.06938844919204712
absS'obstacles'
p8
(dp9
S'/b_r1'
p10
g2
(g3
g4
Ntp11
Rp12
(lp13
F1275.579345703125
aF743.10205078125
aF0.45479825139045715
absS'/b_r0'
p14
g2
(g3
g4
Ntp15
Rp16
(lp17
F2177.64599609375
aF1206.4544677734375
aF1.633437991142273
absS'/b_r3'
p18
g2
(g3
g4
Ntp19
Rp20
(lp21
F899.2159423828125
aF1470.806396484375
aF-0.002149512292817235
absS'/b_r5'
p22
g2
(g3
g4
Ntp23
Rp24
(lp25
F1572.2982177734375
aF-1007.7383422851562
aF-0.10162736475467682
absS'/b_r8'
p26
g2
(g3
g4
Ntp27
Rp28
(lp29
F315.8061828613281
aF1973.2880859375
aF0.02725311927497387
abssS'end'
p30
g2
(g3
g4
Ntp31
Rp32
(lp33
F3011.094482421875
aF-1497.0965576171875
aF0.0
abs.