(dp0
S'start'
p1
ccopy_reg
_reconstructor
p2
(cgeometry_msgs.msg._Pose2D
Pose2D
p3
c__builtin__
object
p4
Ntp5
Rp6
(lp7
F2488.933349609375
aF-1399.25341796875
aF1.9050675630569458
absS'obstacles'
p8
(dp9
S'/b_r1'
p10
g2
(g3
g4
Ntp11
Rp12
(lp13
F1272.54931640625
aF746.3681030273438
aF0.4660673439502716
absS'/b_r0'
p14
g2
(g3
g4
Ntp15
Rp16
(lp17
F2182.673583984375
aF1207.255859375
aF1.6405467987060547
absS'/b_r3'
p18
g2
(g3
g4
Ntp19
Rp20
(lp21
F898.4095458984375
aF1470.806396484375
aF-0.005309556610882282
absS'/b_r2'
p22
g2
(g3
g4
Ntp23
Rp24
(lp25
F2527.68408203125
aF-31.654834747314453
aF3.0881588459014893
absS'/b_r5'
p26
g2
(g3
g4
Ntp27
Rp28
(lp29
F1573.0140380859375
aF-1008.8174438476562
aF-0.098439060151577
abssS'end'
p30
g2
(g3
g4
Ntp31
Rp32
(lp33
F2491.970947265625
aF2083.44580078125
aF0.0
abs.