(dp0
S'start'
p1
ccopy_reg
_reconstructor
p2
(cgeometry_msgs.msg._Pose2D
Pose2D
p3
c__builtin__
object
p4
Ntp5
Rp6
(lp7
F349.0718994140625
aF-1439.088134765625
aF0.6821697354316711
absS'obstacles'
p8
(dp9
S'/b_r1'
p10
g2
(g3
g4
Ntp11
Rp12
(lp13
F1274.27880859375
aF743.7523193359375
aF0.47644051909446716
absS'/b_r0'
p14
g2
(g3
g4
Ntp15
Rp16
(lp17
F1942.0281982421875
aF1218.032958984375
aF2.5499322414398193
absS'/b_r2'
p18
g2
(g3
g4
Ntp19
Rp20
(lp21
F1912.3507080078125
aF186.0060577392578
aF-2.757858991622925
absS'/b_r5'
p22
g2
(g3
g4
Ntp23
Rp24
(lp25
F1570.17822265625
aF-1009.7013549804688
aF-0.09015247225761414
absS'/b_r6'
p26
g2
(g3
g4
Ntp27
Rp28
(lp29
F2744.502685546875
aF-809.4429321289062
aF2.2620415687561035
abssS'end'
p30
g2
(g3
g4
Ntp31
Rp32
(lp33
F2490.52490234375
aF2082.346923828125
aF0.0
abs.